; Function Attrs: nounwind uwtable
define i32 @Abc_TtHashLookup5(i32 noundef %0, ptr noundef readonly captures(none) %1, ptr noundef captures(none) %2, ptr noundef captures(none) %3) local_unnamed_addr #3 {
  %5 = alloca i32, align 4
  store i32 %0, ptr %5, align 4, !tbaa !7
  %6 = getelementptr i8, ptr %1, i64 4
  %.val21 = load i32, ptr %6, align 4, !tbaa !14
  br label %.lr.ph.i

.lr.ph.i:                                         ; preds = %.lr.ph.i, %4
  %indvars.iv.i = phi i64 [ 0, %4 ], [ %indvars.iv.next.i, %.lr.ph.i ]
  %.019.i = phi i32 [ 0, %4 ], [ %13, %.lr.ph.i ]
  %indvars.iv.next.i = add nuw nsw i64 %indvars.iv.i, 1
  %7 = getelementptr inbounds nuw i8, ptr %5, i64 %indvars.iv.i
  %8 = load i8, ptr %7, align 1, !tbaa !19
  %9 = zext i8 %8 to i32
  %10 = add i32 %.019.i, %9
  %11 = mul i32 %10, 1025
  %12 = lshr i32 %11, 6
  %13 = xor i32 %12, %11
  %.not.i = icmp eq i64 %indvars.iv.next.i, 4
  br i1 %.not.i, label %Abc_TtGetKey.exit, label %.lr.ph.i, !llvm.loop !27

Abc_TtGetKey.exit:                                ; preds = %.lr.ph.i
  %14 = mul i32 %13, 9
  %15 = lshr i32 %14, 11
  %16 = xor i32 %15, %14
  %17 = mul i32 %16, 32769
  %18 = urem i32 %17, %.val21
  %19 = getelementptr i8, ptr %1, i64 8
  %.val22 = load ptr, ptr %19, align 8, !tbaa !18
  %20 = sext i32 %18 to i64
  %21 = getelementptr inbounds i32, ptr %.val22, i64 %20
  %22 = load i32, ptr %21, align 4, !tbaa !7
  %23 = icmp sgt i32 %22, -1
  br i1 %23, label %.lr.ph, label %._crit_edge

.lr.ph:                                           ; preds = %Abc_TtGetKey.exit
  %24 = getelementptr i8, ptr %2, i64 8
  %.val23 = load ptr, ptr %24, align 8, !tbaa !28
  br label %25

25:                                               ; preds = %.lr.ph, %32
  %26 = phi i32 [ %22, %.lr.ph ], [ %37, %32 ]
  %.01934 = phi i32 [ %18, %.lr.ph ], [ %34, %32 ]
  %27 = zext nneg i32 %26 to i64
  %28 = getelementptr inbounds nuw i64, ptr %.val23, i64 %27
  %29 = load i64, ptr %28, align 8, !tbaa !3
  %30 = trunc i64 %29 to i32
  %31 = icmp eq i32 %0, %30
  br i1 %31, label %.loopexit, label %32

32:                                               ; preds = %25
  %33 = add nsw i32 %.01934, 1
  %34 = srem i32 %33, %.val21
  %35 = sext i32 %34 to i64
  %36 = getelementptr inbounds i32, ptr %.val22, i64 %35
  %37 = load i32, ptr %36, align 4, !tbaa !7
  %38 = icmp sgt i32 %37, -1
  br i1 %38, label %25, label %._crit_edge, !llvm.loop !31

._crit_edge:                                      ; preds = %32, %Abc_TtGetKey.exit
  %.lcssa33 = phi i64 [ %20, %Abc_TtGetKey.exit ], [ %35, %32 ]
  %.019.lcssa = phi i32 [ %18, %Abc_TtGetKey.exit ], [ %34, %32 ]
  %39 = getelementptr inbounds i32, ptr %.val22, i64 %.lcssa33
  %40 = getelementptr i8, ptr %2, i64 4
  %.val24 = load i32, ptr %40, align 4, !tbaa !32
  store i32 %.val24, ptr %39, align 4, !tbaa !7
  %41 = sext i32 %0 to i64
  %42 = load i32, ptr %2, align 8, !tbaa !33
  %43 = icmp eq i32 %.val24, %42
  br i1 %43, label %44, label %.Vec_WrdGrow.exit10_crit_edge.i

.Vec_WrdGrow.exit10_crit_edge.i:                  ; preds = %._crit_edge
  %.phi.trans.insert.i = getelementptr inbounds nuw i8, ptr %2, i64 8
  %.pre.i = load ptr, ptr %.phi.trans.insert.i, align 8, !tbaa !28
  br label %Vec_WrdPush.exit

44:                                               ; preds = %._crit_edge
  %45 = icmp slt i32 %.val24, 16
  br i1 %45, label %46, label %54

46:                                               ; preds = %44
  %47 = getelementptr inbounds nuw i8, ptr %2, i64 8
  %48 = load ptr, ptr %47, align 8, !tbaa !28
  %.not9.i.i = icmp eq ptr %48, null
  br i1 %.not9.i.i, label %51, label %49

49:                                               ; preds = %46
  %50 = tail call dereferenceable_or_null(128) ptr @realloc(ptr noundef nonnull %48, i64 noundef 128) #25
  br label %Vec_WrdGrow.exit.i

51:                                               ; preds = %46
  %52 = tail call noalias dereferenceable_or_null(128) ptr @malloc(i64 noundef 128) #26
  br label %Vec_WrdGrow.exit.i

Vec_WrdGrow.exit.i:                               ; preds = %51, %49
  %53 = phi ptr [ %50, %49 ], [ %52, %51 ]
  store ptr %53, ptr %47, align 8, !tbaa !28
  store i32 16, ptr %2, align 8, !tbaa !33
  br label %Vec_WrdPush.exit

54:                                               ; preds = %44
  %55 = shl nuw nsw i32 %.val24, 1
  %56 = getelementptr inbounds nuw i8, ptr %2, i64 8
  %57 = load ptr, ptr %56, align 8, !tbaa !28
  %.not9.i9.i = icmp eq ptr %57, null
  %58 = zext nneg i32 %55 to i64
  %59 = shl nuw nsw i64 %58, 3
  br i1 %.not9.i9.i, label %62, label %60

60:                                               ; preds = %54
  %61 = tail call ptr @realloc(ptr noundef nonnull %57, i64 noundef %59) #25
  br label %64

62:                                               ; preds = %54
  %63 = tail call noalias ptr @malloc(i64 noundef %59) #26
  br label %64

64:                                               ; preds = %62, %60
  %65 = phi ptr [ %61, %60 ], [ %63, %62 ]
  store ptr %65, ptr %56, align 8, !tbaa !28
  store i32 %55, ptr %2, align 8, !tbaa !33
  br label %Vec_WrdPush.exit

Vec_WrdPush.exit:                                 ; preds = %.Vec_WrdGrow.exit10_crit_edge.i, %Vec_WrdGrow.exit.i, %64
  %66 = phi ptr [ %.pre.i, %.Vec_WrdGrow.exit10_crit_edge.i ], [ %65, %64 ], [ %53, %Vec_WrdGrow.exit.i ]
  %67 = load i32, ptr %40, align 4, !tbaa !32
  %68 = add nsw i32 %67, 1
  store i32 %68, ptr %40, align 4, !tbaa !32
  %69 = sext i32 %67 to i64
  %70 = getelementptr inbounds i64, ptr %66, i64 %69
  store i64 %41, ptr %70, align 8, !tbaa !3
  %71 = getelementptr inbounds nuw i8, ptr %3, i64 4
  %72 = load i32, ptr %71, align 4, !tbaa !14
  %73 = load i32, ptr %3, align 8, !tbaa !20
  %74 = icmp eq i32 %72, %73
  br i1 %74, label %75, label %.Vec_IntGrow.exit10_crit_edge.i

.Vec_IntGrow.exit10_crit_edge.i:                  ; preds = %Vec_WrdPush.exit
  %.phi.trans.insert.i25 = getelementptr inbounds nuw i8, ptr %3, i64 8
  %.pre.i26 = load ptr, ptr %.phi.trans.insert.i25, align 8, !tbaa !18
  br label %Vec_IntPush.exit

75:                                               ; preds = %Vec_WrdPush.exit
  %76 = icmp slt i32 %72, 16
  br i1 %76, label %77, label %85

77:                                               ; preds = %75
  %78 = getelementptr inbounds nuw i8, ptr %3, i64 8
  %79 = load ptr, ptr %78, align 8, !tbaa !18
  %.not9.i.i28 = icmp eq ptr %79, null
  br i1 %.not9.i.i28, label %82, label %80

80:                                               ; preds = %77
  %81 = tail call dereferenceable_or_null(64) ptr @realloc(ptr noundef nonnull %79, i64 noundef 64) #25
  br label %Vec_IntGrow.exit.i

82:                                               ; preds = %77
  %83 = tail call noalias dereferenceable_or_null(64) ptr @malloc(i64 noundef 64) #26
  br label %Vec_IntGrow.exit.i

Vec_IntGrow.exit.i:                               ; preds = %82, %80
  %84 = phi ptr [ %81, %80 ], [ %83, %82 ]
  store ptr %84, ptr %78, align 8, !tbaa !18
  store i32 16, ptr %3, align 8, !tbaa !20
  br label %Vec_IntPush.exit

85:                                               ; preds = %75
  %86 = shl nuw nsw i32 %72, 1
  %87 = getelementptr inbounds nuw i8, ptr %3, i64 8
  %88 = load ptr, ptr %87, align 8, !tbaa !18
  %.not9.i9.i27 = icmp eq ptr %88, null
  %89 = zext nneg i32 %86 to i64
  %90 = shl nuw nsw i64 %89, 2
  br i1 %.not9.i9.i27, label %93, label %91

91:                                               ; preds = %85
  %92 = tail call ptr @realloc(ptr noundef nonnull %88, i64 noundef %90) #25
  br label %95

93:                                               ; preds = %85
  %94 = tail call noalias ptr @malloc(i64 noundef %90) #26
  br label %95

95:                                               ; preds = %93, %91
  %96 = phi ptr [ %92, %91 ], [ %94, %93 ]
  store ptr %96, ptr %87, align 8, !tbaa !18
  store i32 %86, ptr %3, align 8, !tbaa !20
  br label %Vec_IntPush.exit

Vec_IntPush.exit:                                 ; preds = %.Vec_IntGrow.exit10_crit_edge.i, %Vec_IntGrow.exit.i, %95
  %97 = phi ptr [ %.pre.i26, %.Vec_IntGrow.exit10_crit_edge.i ], [ %96, %95 ], [ %84, %Vec_IntGrow.exit.i ]
  %98 = load i32, ptr %71, align 4, !tbaa !14
  %99 = add nsw i32 %98, 1
  store i32 %99, ptr %71, align 4, !tbaa !14
  %100 = sext i32 %98 to i64
  %101 = getelementptr inbounds i32, ptr %97, i64 %100
  store i32 %.019.lcssa, ptr %101, align 4, !tbaa !7
  %.0.pre = load i32, ptr %39, align 4, !tbaa !7
  br label %.loopexit

.loopexit:                                        ; preds = %25, %Vec_IntPush.exit
  %.0 = phi i32 [ %.0.pre, %Vec_IntPush.exit ], [ %26, %25 ]
  ret i32 %.0
}